target datalayout = "e-m:e-p270:32:32-p271:32:32-p272:64:64-i64:64-i128:128-f80:128-n8:16:32:64-S128"
target triple = "x86_64-pc-linux-gnu"

%struct.Curl_easy = type { i32, i64, i64, ptr, %struct.Curl_llist_node, %struct.Curl_llist_node, i32, i32, %struct.Curl_message, %struct.easy_pollset, %struct.Names, ptr, ptr, ptr, ptr, %struct.SingleRequest, %struct.UserDefined, ptr, ptr, ptr, %struct.Progress, %struct.UrlState, ptr, %struct.PureInfo, %struct.curl_tlssessioninfo }
%struct.Curl_llist_node = type { ptr, ptr, ptr, ptr }
%struct.Curl_message = type { %struct.Curl_llist_node, %struct.CURLMsg }
%struct.CURLMsg = type { i32, ptr, %union.anon }
%union.anon = type { ptr }
%struct.easy_pollset = type { [5 x i32], i32, [5 x i8] }
%struct.Names = type { ptr, i32 }
%struct.SingleRequest = type <{ i64, i64, i64, i64, %struct.curltime, i32, i32, i32, i32, i64, i32, i32, i8, i8, [2 x i8], i32, ptr, ptr, %struct.bufq, i64, i64, ptr, ptr, %union.anon.0, ptr, i8, i32, [3 x i8] }>
%struct.curltime = type { i64, i32 }
%struct.bufq = type { ptr, ptr, ptr, ptr, i64, i64, i64, i32 }
%union.anon.0 = type { ptr }
%struct.UserDefined = type <{ ptr, ptr, ptr, ptr, ptr, ptr, i64, i64, i64, ptr, ptr, i64, ptr, ptr, ptr, ptr, ptr, ptr, ptr, ptr, ptr, ptr, ptr, ptr, ptr, ptr, ptr, ptr, ptr, ptr, ptr, ptr, ptr, ptr, ptr, i64, i64, i64, i64, i64, i64, i64, i64, i64, ptr, ptr, %struct.curl_mimepart, ptr, ptr, ptr, i64, %struct.ssl_config_data, %struct.ssl_config_data, ptr, i16, i8, i8, %struct.ssl_general_config, i32, i32, i32, [4 x i8], ptr, ptr, i64, i32, i8, i8, i8, i8, ptr, ptr, ptr, i32, [4 x i8], [74 x ptr], [8 x ptr], i32, i32, i32, [4 x i8], ptr, i32, [4 x i8], ptr, ptr, ptr, ptr, ptr, i32, i32, i32, i32, i32, i32, i32, i32, i64, ptr, ptr, i64, ptr, i64, ptr, ptr, ptr, ptr, i32, i16, i16, i16, i8, i8, i8, i8, i8, i8, i8, i8, i64, [6 x i8] }>
%struct.curl_mimepart = type { ptr, ptr, i32, i32, ptr, ptr, ptr, ptr, ptr, ptr, ptr, ptr, ptr, ptr, ptr, i64, %struct.mime_state, ptr, %struct.mime_encoder_state, i64 }
%struct.mime_state = type { i32, ptr, i64 }
%struct.mime_encoder_state = type { i64, i64, i64, [256 x i8] }
%struct.ssl_config_data = type { %struct.ssl_primary_config, i64, ptr, ptr, ptr, ptr, ptr, ptr, ptr, i16 }
%struct.ssl_primary_config = type { ptr, ptr, ptr, ptr, ptr, ptr, ptr, ptr, ptr, ptr, ptr, ptr, ptr, ptr, i8, i32, i8, i8 }
%struct.ssl_general_config = type { i32 }
%struct.Progress = type { i64, %struct.pgrs_dir, %struct.pgrs_dir, i64, i64, i32, i32, i64, i64, i64, i64, i64, i64, i64, i64, i64, %struct.curltime, %struct.curltime, %struct.curltime, %struct.curltime, %struct.curltime, [6 x i64], [6 x %struct.curltime], i32, i8 }
%struct.pgrs_dir = type { i64, i64, i64, %struct.pgrs_measure }
%struct.pgrs_measure = type { %struct.curltime, i64 }
%struct.UrlState = type { %struct.curltime, i64, i64, %struct.dynbuf, ptr, i64, ptr, i32, i32, i32, ptr, i32, i64, i32, ptr, %struct.digestdata, %struct.digestdata, %struct.auth, %struct.auth, %struct.Curl_async, ptr, i8, %struct.curltime, %struct.Curl_tree, %struct.Curl_llist, [15 x %struct.time_node], ptr, ptr, i64, i64, i64, i64, [32 x i8], i64, ptr, ptr, ptr, %struct.urlpieces, ptr, ptr, ptr, ptr, ptr, i64, %struct.dynbuf, %struct.Curl_llist, [2 x %struct.curl_header], ptr, i32, ptr, ptr, %struct.store_netrc, %struct.dynamically_allocated_data, i8, i8, i8, i8, i32 }
%struct.digestdata = type { ptr, ptr, ptr, ptr, ptr, ptr, i32, i8, i8 }
%struct.auth = type { i64, i64, i64, i8 }
%struct.Curl_async = type { ptr, ptr, ptr, ptr, i32, i32, i8 }
%struct.Curl_tree = type { ptr, ptr, ptr, ptr, %struct.curltime, ptr }
%struct.time_node = type { %struct.Curl_llist_node, %struct.curltime, i32 }
%struct.urlpieces = type { ptr, ptr, ptr, ptr, ptr, ptr, ptr, ptr }
%struct.dynbuf = type { ptr, i64, i64, i64 }
%struct.Curl_llist = type { ptr, ptr, ptr, i64 }
%struct.curl_header = type { ptr, ptr, i64, i64, i32, ptr }
%struct.store_netrc = type { %struct.dynbuf, ptr, i8 }
%struct.dynamically_allocated_data = type { ptr, ptr, ptr, ptr, ptr, ptr, ptr, ptr, ptr, ptr, ptr, ptr, ptr, ptr }
%struct.PureInfo = type { i32, i32, i32, i64, i64, i64, i64, i64, i64, i64, ptr, ptr, i64, i32, %struct.ip_quadruple, i32, ptr, i32, %struct.curl_certinfo, i32, i8 }
%struct.ip_quadruple = type { [46 x i8], [46 x i8], i32, i32 }
%struct.curl_certinfo = type { i32, ptr }
%struct.curl_tlssessioninfo = type { i32, ptr }

@.str.50 = private unnamed_addr constant [37 x i8] c"Too large response headers: %zu > %u\00", align 1

; Function Attrs: nounwind uwtable
define hidden i32 @Curl_bump_headersize(ptr noundef %0, i64 noundef %1, i1 noundef zeroext %2) #0 {
  %4 = alloca i32, align 4
  %5 = alloca ptr, align 8
  %6 = alloca i64, align 8
  %7 = alloca i8, align 1
  %8 = alloca i64, align 8
  %9 = alloca i32, align 4
  %10 = alloca i32, align 4
  store ptr %0, ptr %5, align 8, !tbaa !3
  store i64 %1, ptr %6, align 8, !tbaa !119
  %11 = zext i1 %2 to i8
  store i8 %11, ptr %7, align 1, !tbaa !83
  call void @llvm.lifetime.start.p0(i64 8, ptr %8) #7
  store i64 0, ptr %8, align 8, !tbaa !119
  call void @llvm.lifetime.start.p0(i64 4, ptr %9) #7
  store i32 307200, ptr %9, align 4, !tbaa !78
  %12 = load i64, ptr %6, align 8, !tbaa !119
  %13 = icmp ult i64 %12, 307200
  br i1 %13, label %14, label %70

14:                                               ; preds = %3
  %15 = load i64, ptr %6, align 8, !tbaa !119
  %16 = trunc i64 %15 to i32
  %17 = load ptr, ptr %5, align 8, !tbaa !3
  %18 = getelementptr inbounds nuw %struct.Curl_easy, ptr %17, i32 0, i32 23
  %19 = getelementptr inbounds nuw %struct.PureInfo, ptr %18, i32 0, i32 13
  %20 = load i32, ptr %19, align 8, !tbaa !223
  %21 = add i32 %20, %16
  store i32 %21, ptr %19, align 8, !tbaa !223
  %22 = load i64, ptr %6, align 8, !tbaa !119
  %23 = trunc i64 %22 to i32
  %24 = load ptr, ptr %5, align 8, !tbaa !3
  %25 = getelementptr inbounds nuw %struct.Curl_easy, ptr %24, i32 0, i32 15
  %26 = getelementptr inbounds nuw %struct.SingleRequest, ptr %25, i32 0, i32 6
  %27 = load i32, ptr %26, align 4, !tbaa !224
  %28 = add i32 %27, %23
  store i32 %28, ptr %26, align 4, !tbaa !224
  %29 = load i8, ptr %7, align 1, !tbaa !83, !range !112, !noundef !113
  %30 = trunc i8 %29 to i1
  br i1 %30, label %39, label %31

31:                                               ; preds = %14
  %32 = load i64, ptr %6, align 8, !tbaa !119
  %33 = trunc i64 %32 to i32
  %34 = load ptr, ptr %5, align 8, !tbaa !3
  %35 = getelementptr inbounds nuw %struct.Curl_easy, ptr %34, i32 0, i32 15
  %36 = getelementptr inbounds nuw %struct.SingleRequest, ptr %35, i32 0, i32 5
  %37 = load i32, ptr %36, align 8, !tbaa !115
  %38 = add i32 %37, %33
  store i32 %38, ptr %36, align 8, !tbaa !115
  br label %39

39:                                               ; preds = %31, %14
  %40 = load ptr, ptr %5, align 8, !tbaa !3
  %41 = getelementptr inbounds nuw %struct.Curl_easy, ptr %40, i32 0, i32 15
  %42 = getelementptr inbounds nuw %struct.SingleRequest, ptr %41, i32 0, i32 6
  %43 = load i32, ptr %42, align 4, !tbaa !224
  %44 = load i32, ptr %9, align 4, !tbaa !78
  %45 = icmp ugt i32 %43, %44
  br i1 %45, label %46, label %52

46:                                               ; preds = %39
  %47 = load ptr, ptr %5, align 8, !tbaa !3
  %48 = getelementptr inbounds nuw %struct.Curl_easy, ptr %47, i32 0, i32 15
  %49 = getelementptr inbounds nuw %struct.SingleRequest, ptr %48, i32 0, i32 6
  %50 = load i32, ptr %49, align 4, !tbaa !224
  %51 = zext i32 %50 to i64
  store i64 %51, ptr %8, align 8, !tbaa !119
  br label %69

52:                                               ; preds = %39
  %53 = load ptr, ptr %5, align 8, !tbaa !3
  %54 = getelementptr inbounds nuw %struct.Curl_easy, ptr %53, i32 0, i32 23
  %55 = getelementptr inbounds nuw %struct.PureInfo, ptr %54, i32 0, i32 13
  %56 = load i32, ptr %55, align 8, !tbaa !223
  %57 = load i32, ptr %9, align 4, !tbaa !78
  %58 = mul i32 %57, 20
  %59 = icmp ugt i32 %56, %58
  br i1 %59, label %60, label %68

60:                                               ; preds = %52
  %61 = load ptr, ptr %5, align 8, !tbaa !3
  %62 = getelementptr inbounds nuw %struct.Curl_easy, ptr %61, i32 0, i32 23
  %63 = getelementptr inbounds nuw %struct.PureInfo, ptr %62, i32 0, i32 13
  %64 = load i32, ptr %63, align 8, !tbaa !223
  %65 = zext i32 %64 to i64
  store i64 %65, ptr %8, align 8, !tbaa !119
  %66 = load i32, ptr %9, align 4, !tbaa !78
  %67 = mul i32 %66, 20
  store i32 %67, ptr %9, align 4, !tbaa !78
  br label %68

68:                                               ; preds = %60, %52
  br label %69

69:                                               ; preds = %68, %46
  br label %78

70:                                               ; preds = %3
  %71 = load ptr, ptr %5, align 8, !tbaa !3
  %72 = getelementptr inbounds nuw %struct.Curl_easy, ptr %71, i32 0, i32 15
  %73 = getelementptr inbounds nuw %struct.SingleRequest, ptr %72, i32 0, i32 6
  %74 = load i32, ptr %73, align 4, !tbaa !224
  %75 = zext i32 %74 to i64
  %76 = load i64, ptr %6, align 8, !tbaa !119
  %77 = add i64 %75, %76
  store i64 %77, ptr %8, align 8, !tbaa !119
  br label %78

78:                                               ; preds = %70, %69
  %79 = load i64, ptr %8, align 8, !tbaa !119
  %80 = icmp ne i64 %79, 0
  br i1 %80, label %81, label %85

81:                                               ; preds = %78
  %82 = load ptr, ptr %5, align 8, !tbaa !3
  %83 = load i64, ptr %8, align 8, !tbaa !119
  %84 = load i32, ptr %9, align 4, !tbaa !78
  call void (ptr, ptr, ...) @Curl_failf(ptr noundef %82, ptr noundef @.str.50, i64 noundef %83, i32 noundef %84)
  store i32 56, ptr %4, align 4
  store i32 1, ptr %10, align 4
  br label %86

85:                                               ; preds = %78
  store i32 0, ptr %4, align 4
  store i32 1, ptr %10, align 4
  br label %86

86:                                               ; preds = %85, %81
  call void @llvm.lifetime.end.p0(i64 4, ptr %9) #7
  call void @llvm.lifetime.end.p0(i64 8, ptr %8) #7
  %87 = load i32, ptr %4, align 4
  ret i32 %87
}

; Function Attrs: nounwind uwtable
define internal i32 @http_write_header(ptr noundef %0, ptr noundef %1, i64 noundef %2) #0 {
  %4 = alloca i32, align 4
  %5 = alloca ptr, align 8
  %6 = alloca ptr, align 8
  %7 = alloca i64, align 8
  %8 = alloca i32, align 4
  %9 = alloca i32, align 4
  %10 = alloca i32, align 4
  store ptr %0, ptr %5, align 8, !tbaa !3
  store ptr %1, ptr %6, align 8, !tbaa !82
  store i64 %2, ptr %7, align 8, !tbaa !119
  call void @llvm.lifetime.start.p0(i64 4, ptr %8) #7
  call void @llvm.lifetime.start.p0(i64 4, ptr %9) #7
  %11 = load ptr, ptr %5, align 8, !tbaa !3
  %12 = load ptr, ptr %6, align 8, !tbaa !82
  %13 = load i64, ptr %7, align 8, !tbaa !119
  call void @Curl_debug(ptr noundef %11, i32 noundef 1, ptr noundef %12, i64 noundef %13)
  %14 = load ptr, ptr %5, align 8, !tbaa !3
  %15 = getelementptr inbounds nuw %struct.Curl_easy, ptr %14, i32 0, i32 15
  %16 = getelementptr inbounds nuw %struct.SingleRequest, ptr %15, i32 0, i32 10
  %17 = load i32, ptr %16, align 8, !tbaa !125
  %18 = sdiv i32 %17, 100
  %19 = icmp eq i32 %18, 1
  %20 = select i1 %19, i32 32, i32 0
  %21 = or i32 4, %20
  store i32 %21, ptr %9, align 4, !tbaa !78
  %22 = load ptr, ptr %5, align 8, !tbaa !3
  %23 = load i32, ptr %9, align 4, !tbaa !78
  %24 = load ptr, ptr %6, align 8, !tbaa !82
  %25 = load i64, ptr %7, align 8, !tbaa !119
  %26 = call i32 @Curl_client_write(ptr noundef %22, i32 noundef %23, ptr noundef %24, i64 noundef %25)
  store i32 %26, ptr %8, align 4, !tbaa !78
  %27 = load i32, ptr %8, align 4, !tbaa !78
  %28 = icmp ne i32 %27, 0
  br i1 %28, label %29, label %31

29:                                               ; preds = %3
  %30 = load i32, ptr %8, align 4, !tbaa !78
  store i32 %30, ptr %4, align 4
  store i32 1, ptr %10, align 4
  br label %63

31:                                               ; preds = %3
  %32 = load ptr, ptr %5, align 8, !tbaa !3
  %33 = load i64, ptr %7, align 8, !tbaa !119
  %34 = call i32 @Curl_bump_headersize(ptr noundef %32, i64 noundef %33, i1 noundef zeroext false)
  store i32 %34, ptr %8, align 4, !tbaa !78
  %35 = load i32, ptr %8, align 4, !tbaa !78
  %36 = icmp ne i32 %35, 0
  br i1 %36, label %37, label %39

37:                                               ; preds = %31
  %38 = load i32, ptr %8, align 4, !tbaa !78
  store i32 %38, ptr %4, align 4
  store i32 1, ptr %10, align 4
  br label %63

39:                                               ; preds = %31
  %40 = load ptr, ptr %5, align 8, !tbaa !3
  %41 = getelementptr inbounds nuw %struct.Curl_easy, ptr %40, i32 0, i32 15
  %42 = getelementptr inbounds nuw %struct.SingleRequest, ptr %41, i32 0, i32 10
  %43 = load i32, ptr %42, align 8, !tbaa !125
  %44 = icmp sle i32 100, %43
  br i1 %44, label %45, label %56

45:                                               ; preds = %39
  %46 = load ptr, ptr %5, align 8, !tbaa !3
  %47 = getelementptr inbounds nuw %struct.Curl_easy, ptr %46, i32 0, i32 15
  %48 = getelementptr inbounds nuw %struct.SingleRequest, ptr %47, i32 0, i32 10
  %49 = load i32, ptr %48, align 8, !tbaa !125
  %50 = icmp sge i32 199, %49
  br i1 %50, label %51, label %56

51:                                               ; preds = %45
  %52 = load ptr, ptr %5, align 8, !tbaa !3
  %53 = getelementptr inbounds nuw %struct.Curl_easy, ptr %52, i32 0, i32 15
  %54 = getelementptr inbounds nuw %struct.SingleRequest, ptr %53, i32 0, i32 5
  %55 = load i32, ptr %54, align 8, !tbaa !115
  br label %57

56:                                               ; preds = %45, %39
  br label %57

57:                                               ; preds = %56, %51
  %58 = phi i32 [ %55, %51 ], [ 0, %56 ]
  %59 = load ptr, ptr %5, align 8, !tbaa !3
  %60 = getelementptr inbounds nuw %struct.Curl_easy, ptr %59, i32 0, i32 15
  %61 = getelementptr inbounds nuw %struct.SingleRequest, ptr %60, i32 0, i32 7
  store i32 %58, ptr %61, align 8, !tbaa !116
  %62 = load i32, ptr %8, align 4, !tbaa !78
  store i32 %62, ptr %4, align 4
  store i32 1, ptr %10, align 4
  br label %63

63:                                               ; preds = %57, %37, %29
  call void @llvm.lifetime.end.p0(i64 4, ptr %9) #7
  call void @llvm.lifetime.end.p0(i64 4, ptr %8) #7
  %64 = load i32, ptr %4, align 4
  ret i32 %64
}